target datalayout = "e-m:e-p270:32:32-p271:32:32-p272:64:64-i64:64-i128:128-f80:128-n8:16:32:64-S128"
target triple = "x86_64-pc-linux-gnu"

%"class.Ipopt::NLPScalingObject" = type { %"class.Ipopt::ReferencedObject.base", %"class.Ipopt::SmartPtr" }
%"class.Ipopt::ReferencedObject.base" = type <{ ptr, i32 }>
%"class.Ipopt::SmartPtr" = type { ptr }
%"class.Ipopt::ReferencedObject" = type <{ ptr, i32, [4 x i8] }>
%"class.Ipopt::SmartPtr.0" = type { ptr }
%"class.Ipopt::SmartPtr.1" = type { ptr }
%"class.Ipopt::StandardScalingBase" = type { %"class.Ipopt::NLPScalingObject", double, %"class.Ipopt::SmartPtr.0", %"class.Ipopt::SmartPtr.4", %"class.Ipopt::SmartPtr.4", %"class.Ipopt::SmartPtr.5", double }
%"class.Ipopt::SmartPtr.4" = type { ptr }
%"class.Ipopt::SmartPtr.5" = type { ptr }

; Function Attrs: mustprogress nounwind uwtable
define linkonce_odr void @_ZN5Ipopt8SmartPtrIKNS_6VectorEE15ReleasePointer_Ev(ptr noundef nonnull align 8 dereferenceable(8) %0) #5 comdat align 2 {
  %2 = alloca ptr, align 8
  store ptr %0, ptr %2, align 8, !tbaa !22
  %3 = load ptr, ptr %2, align 8
  %4 = getelementptr inbounds nuw %"class.Ipopt::SmartPtr.1", ptr %3, i32 0, i32 0
  %5 = load ptr, ptr %4, align 8, !tbaa !26
  %6 = icmp ne ptr %5, null
  br i1 %6, label %7, label %25

7:                                                ; preds = %1
  %8 = getelementptr inbounds nuw %"class.Ipopt::SmartPtr.1", ptr %3, i32 0, i32 0
  %9 = load ptr, ptr %8, align 8, !tbaa !26
  call void @_ZNK5Ipopt16ReferencedObject10ReleaseRefEPKNS_10ReferencerE(ptr noundef nonnull align 8 dereferenceable(12) %9, ptr noundef %3)
  %10 = getelementptr inbounds nuw %"class.Ipopt::SmartPtr.1", ptr %3, i32 0, i32 0
  %11 = load ptr, ptr %10, align 8, !tbaa !26
  %12 = call noundef i32 @_ZNK5Ipopt16ReferencedObject14ReferenceCountEv(ptr noundef nonnull align 8 dereferenceable(12) %11)
  %13 = icmp eq i32 %12, 0
  br i1 %13, label %14, label %24

14:                                               ; preds = %7
  %15 = getelementptr inbounds nuw %"class.Ipopt::SmartPtr.1", ptr %3, i32 0, i32 0
  %16 = load ptr, ptr %15, align 8, !tbaa !26
  %17 = icmp eq ptr %16, null
  br i1 %17, label %22, label %18

18:                                               ; preds = %14
  %19 = load ptr, ptr %16, align 8, !tbaa !8
  %20 = getelementptr inbounds ptr, ptr %19, i64 1
  %21 = load ptr, ptr %20, align 8
  call void %21(ptr noundef nonnull align 8 dereferenceable(205) %16) #3
  br label %22

22:                                               ; preds = %18, %14
  %23 = getelementptr inbounds nuw %"class.Ipopt::SmartPtr.1", ptr %3, i32 0, i32 0
  store ptr null, ptr %23, align 8, !tbaa !26
  br label %24

24:                                               ; preds = %22, %7
  br label %25

25:                                               ; preds = %24, %1
  ret void
}

; Function Attrs: inlinehint mustprogress nounwind uwtable
define linkonce_odr void @_ZNK5Ipopt16ReferencedObject6AddRefEPKNS_10ReferencerE(ptr noundef nonnull align 8 dereferenceable(12) %0, ptr noundef %1) #11 comdat align 2 {
  %3 = alloca ptr, align 8
  %4 = alloca ptr, align 8
  store ptr %0, ptr %3, align 8, !tbaa !10
  store ptr %1, ptr %4, align 8, !tbaa !152
  %5 = load ptr, ptr %3, align 8
  %6 = getelementptr inbounds nuw %"class.Ipopt::ReferencedObject", ptr %5, i32 0, i32 1
  %7 = load i32, ptr %6, align 8, !tbaa !12
  %8 = add nsw i32 %7, 1
  store i32 %8, ptr %6, align 8, !tbaa !12
  ret void
}

; Function Attrs: mustprogress nounwind uwtable
define linkonce_odr noundef ptr @_ZN5Ipopt9GetRawPtrIKNS_6VectorEEEPT_RKNS_8SmartPtrIS3_EE(ptr noundef nonnull align 8 dereferenceable(8) %0) #5 comdat {
  %2 = alloca ptr, align 8
  store ptr %0, ptr %2, align 8, !tbaa !22
  %3 = load ptr, ptr %2, align 8, !tbaa !22
  %4 = getelementptr inbounds nuw %"class.Ipopt::SmartPtr.1", ptr %3, i32 0, i32 0
  %5 = load ptr, ptr %4, align 8, !tbaa !26
  ret ptr %5
}

; Function Attrs: inlinehint mustprogress nounwind uwtable
define linkonce_odr noundef i32 @_ZNK5Ipopt16ReferencedObject14ReferenceCountEv(ptr noundef nonnull align 8 dereferenceable(12) %0) #11 comdat align 2 {
  %2 = alloca ptr, align 8
  store ptr %0, ptr %2, align 8, !tbaa !10
  %3 = load ptr, ptr %2, align 8
  %4 = getelementptr inbounds nuw %"class.Ipopt::ReferencedObject", ptr %3, i32 0, i32 1
  %5 = load i32, ptr %4, align 8, !tbaa !12
  ret i32 %5
}

; Function Attrs: inlinehint mustprogress nounwind uwtable
define linkonce_odr void @_ZNK5Ipopt16ReferencedObject10ReleaseRefEPKNS_10ReferencerE(ptr noundef nonnull align 8 dereferenceable(12) %0, ptr noundef %1) #11 comdat align 2 {
  %3 = alloca ptr, align 8
  %4 = alloca ptr, align 8
  store ptr %0, ptr %3, align 8, !tbaa !10
  store ptr %1, ptr %4, align 8, !tbaa !152
  %5 = load ptr, ptr %3, align 8
  %6 = getelementptr inbounds nuw %"class.Ipopt::ReferencedObject", ptr %5, i32 0, i32 1
  %7 = load i32, ptr %6, align 8, !tbaa !12
  %8 = add nsw i32 %7, -1
  store i32 %8, ptr %6, align 8, !tbaa !12
  ret void
}

; Function Attrs: mustprogress uwtable
define linkonce_odr noundef nonnull align 8 dereferenceable(8) ptr @_ZN5Ipopt8SmartPtrIKNS_6VectorEE14SetFromRawPtr_EPS2_(ptr noundef nonnull align 8 dereferenceable(8) %0, ptr noundef %1) #4 comdat align 2 {
  %3 = alloca ptr, align 8
  %4 = alloca ptr, align 8
  store ptr %0, ptr %3, align 8, !tbaa !22
  store ptr %1, ptr %4, align 8, !tbaa !29
  %5 = load ptr, ptr %3, align 8
  %6 = load ptr, ptr %4, align 8, !tbaa !29
  %7 = icmp ne ptr %6, null
  br i1 %7, label %8, label %10

8:                                                ; preds = %2
  %9 = load ptr, ptr %4, align 8, !tbaa !29
  call void @_ZNK5Ipopt16ReferencedObject6AddRefEPKNS_10ReferencerE(ptr noundef nonnull align 8 dereferenceable(12) %9, ptr noundef %5)
  br label %10

10:                                               ; preds = %8, %2
  call void @_ZN5Ipopt8SmartPtrIKNS_6VectorEE15ReleasePointer_Ev(ptr noundef nonnull align 8 dereferenceable(8) %5)
  %11 = load ptr, ptr %4, align 8, !tbaa !29
  %12 = getelementptr inbounds nuw %"class.Ipopt::SmartPtr.1", ptr %5, i32 0, i32 0
  store ptr %11, ptr %12, align 8, !tbaa !26
  ret ptr %5
}

; Function Attrs: mustprogress uwtable
define linkonce_odr noundef nonnull align 8 dereferenceable(8) ptr @_ZN5Ipopt8SmartPtrIKNS_6VectorEE16SetFromSmartPtr_ERKS3_(ptr noundef nonnull align 8 dereferenceable(8) %0, ptr noundef nonnull align 8 dereferenceable(8) %1) #4 comdat align 2 {
  %3 = alloca ptr, align 8
  %4 = alloca ptr, align 8
  store ptr %0, ptr %3, align 8, !tbaa !22
  store ptr %1, ptr %4, align 8, !tbaa !22
  %5 = load ptr, ptr %3, align 8
  %6 = load ptr, ptr %4, align 8, !tbaa !22
  %7 = call noundef ptr @_ZN5Ipopt9GetRawPtrIKNS_6VectorEEEPT_RKNS_8SmartPtrIS3_EE(ptr noundef nonnull align 8 dereferenceable(8) %6)
  %8 = call noundef nonnull align 8 dereferenceable(8) ptr @_ZN5Ipopt8SmartPtrIKNS_6VectorEE14SetFromRawPtr_EPS2_(ptr noundef nonnull align 8 dereferenceable(8) %5, ptr noundef %7)
  ret ptr %5
}

; Function Attrs: noinline noreturn nounwind uwtable
define linkonce_odr hidden void @__clang_call_terminate(ptr noundef %0) #12 comdat {
  %2 = call ptr @__cxa_begin_catch(ptr %0) #3
  call void @_ZSt9terminatev() #16
  unreachable
}

; Function Attrs: mustprogress nounwind uwtable
define linkonce_odr void @_ZN5Ipopt8SmartPtrINS_6VectorEE15ReleasePointer_Ev(ptr noundef nonnull align 8 dereferenceable(8) %0) #5 comdat align 2 {
  %2 = alloca ptr, align 8
  store ptr %0, ptr %2, align 8, !tbaa !30
  %3 = load ptr, ptr %2, align 8
  %4 = getelementptr inbounds nuw %"class.Ipopt::SmartPtr.0", ptr %3, i32 0, i32 0
  %5 = load ptr, ptr %4, align 8, !tbaa !32
  %6 = icmp ne ptr %5, null
  br i1 %6, label %7, label %25

7:                                                ; preds = %1
  %8 = getelementptr inbounds nuw %"class.Ipopt::SmartPtr.0", ptr %3, i32 0, i32 0
  %9 = load ptr, ptr %8, align 8, !tbaa !32
  call void @_ZNK5Ipopt16ReferencedObject10ReleaseRefEPKNS_10ReferencerE(ptr noundef nonnull align 8 dereferenceable(12) %9, ptr noundef %3)
  %10 = getelementptr inbounds nuw %"class.Ipopt::SmartPtr.0", ptr %3, i32 0, i32 0
  %11 = load ptr, ptr %10, align 8, !tbaa !32
  %12 = call noundef i32 @_ZNK5Ipopt16ReferencedObject14ReferenceCountEv(ptr noundef nonnull align 8 dereferenceable(12) %11)
  %13 = icmp eq i32 %12, 0
  br i1 %13, label %14, label %24

14:                                               ; preds = %7
  %15 = getelementptr inbounds nuw %"class.Ipopt::SmartPtr.0", ptr %3, i32 0, i32 0
  %16 = load ptr, ptr %15, align 8, !tbaa !32
  %17 = icmp eq ptr %16, null
  br i1 %17, label %22, label %18

18:                                               ; preds = %14
  %19 = load ptr, ptr %16, align 8, !tbaa !8
  %20 = getelementptr inbounds ptr, ptr %19, i64 1
  %21 = load ptr, ptr %20, align 8
  call void %21(ptr noundef nonnull align 8 dereferenceable(205) %16) #3
  br label %22

22:                                               ; preds = %18, %14
  %23 = getelementptr inbounds nuw %"class.Ipopt::SmartPtr.0", ptr %3, i32 0, i32 0
  store ptr null, ptr %23, align 8, !tbaa !32
  br label %24

24:                                               ; preds = %22, %7
  br label %25

25:                                               ; preds = %24, %1
  ret void
}

; Function Attrs: mustprogress uwtable
define linkonce_odr void @_ZN5Ipopt8SmartPtrIKNS_6VectorEEC2EPS2_(ptr noundef nonnull align 8 dereferenceable(8) %0, ptr noundef %1) unnamed_addr #4 comdat align 2 {
  %3 = alloca ptr, align 8
  %4 = alloca ptr, align 8
  store ptr %0, ptr %3, align 8, !tbaa !22
  store ptr %1, ptr %4, align 8, !tbaa !29
  %5 = load ptr, ptr %3, align 8
  %6 = getelementptr inbounds nuw %"class.Ipopt::SmartPtr.1", ptr %5, i32 0, i32 0
  store ptr null, ptr %6, align 8, !tbaa !26
  %7 = load ptr, ptr %4, align 8, !tbaa !29
  %8 = call noundef nonnull align 8 dereferenceable(8) ptr @_ZN5Ipopt8SmartPtrIKNS_6VectorEE14SetFromRawPtr_EPS2_(ptr noundef nonnull align 8 dereferenceable(8) %5, ptr noundef %7)
  ret void
}

; Function Attrs: mustprogress nounwind uwtable
define linkonce_odr noundef ptr @_ZN5Ipopt9GetRawPtrINS_6VectorEEEPT_RKNS_8SmartPtrIS2_EE(ptr noundef nonnull align 8 dereferenceable(8) %0) #5 comdat {
  %2 = alloca ptr, align 8
  store ptr %0, ptr %2, align 8, !tbaa !30
  %3 = load ptr, ptr %2, align 8, !tbaa !30
  %4 = getelementptr inbounds nuw %"class.Ipopt::SmartPtr.0", ptr %3, i32 0, i32 0
  %5 = load ptr, ptr %4, align 8, !tbaa !32
  ret ptr %5
}

; Function Attrs: mustprogress nounwind uwtable
define linkonce_odr noundef zeroext i1 @_ZN5Ipopt6IsNullINS_6VectorEEEbRKNS_8SmartPtrIT_EE(ptr noundef nonnull align 8 dereferenceable(8) %0) #5 comdat {
  %2 = alloca ptr, align 8
  store ptr %0, ptr %2, align 8, !tbaa !30
  %3 = load ptr, ptr %2, align 8, !tbaa !30
  %4 = getelementptr inbounds nuw %"class.Ipopt::SmartPtr.0", ptr %3, i32 0, i32 0
  %5 = load ptr, ptr %4, align 8, !tbaa !32
  %6 = icmp eq ptr %5, null
  ret i1 %6
}

; Function Attrs: mustprogress uwtable
define linkonce_odr void @_ZN5Ipopt8SmartPtrIKNS_6VectorEEC2ERKS3_(ptr noundef nonnull align 8 dereferenceable(8) %0, ptr noundef nonnull align 8 dereferenceable(8) %1) unnamed_addr #4 comdat align 2 {
  %3 = alloca ptr, align 8
  %4 = alloca ptr, align 8
  store ptr %0, ptr %3, align 8, !tbaa !22
  store ptr %1, ptr %4, align 8, !tbaa !22
  %5 = load ptr, ptr %3, align 8
  %6 = getelementptr inbounds nuw %"class.Ipopt::SmartPtr.1", ptr %5, i32 0, i32 0
  store ptr null, ptr %6, align 8, !tbaa !26
  %7 = load ptr, ptr %4, align 8, !tbaa !22
  %8 = call noundef nonnull align 8 dereferenceable(8) ptr @_ZN5Ipopt8SmartPtrIKNS_6VectorEE16SetFromSmartPtr_ERKS3_(ptr noundef nonnull align 8 dereferenceable(8) %5, ptr noundef nonnull align 8 dereferenceable(8) %7)
  ret void
}

; Function Attrs: mustprogress nounwind uwtable
define linkonce_odr void @_ZN5Ipopt8SmartPtrINS_6VectorEED2Ev(ptr noundef nonnull align 8 dereferenceable(8) %0) unnamed_addr #5 comdat align 2 personality ptr @__gxx_personality_v0 {
  %2 = alloca ptr, align 8
  store ptr %0, ptr %2, align 8, !tbaa !30
  %3 = load ptr, ptr %2, align 8
  invoke void @_ZN5Ipopt8SmartPtrINS_6VectorEE15ReleasePointer_Ev(ptr noundef nonnull align 8 dereferenceable(8) %3)
          to label %4 unwind label %5

4:                                                ; preds = %1
  ret void

5:                                                ; preds = %1
  %6 = landingpad { ptr, i32 }
          catch ptr null
  %7 = extractvalue { ptr, i32 } %6, 0
  call void @__clang_call_terminate(ptr %7) #16
  unreachable
}

; Function Attrs: mustprogress uwtable
define linkonce_odr void @_ZN5Ipopt8ConstPtrINS_6VectorEEENS_8SmartPtrIKT_EERKNS2_IS3_EE(ptr dead_on_unwind noalias writable sret(%"class.Ipopt::SmartPtr.1") align 8 %0, ptr noundef nonnull align 8 dereferenceable(8) %1) #4 comdat {
  %3 = alloca ptr, align 8
  %4 = alloca ptr, align 8
  store ptr %0, ptr %3, align 8
  store ptr %1, ptr %4, align 8, !tbaa !30
  %5 = load ptr, ptr %4, align 8, !tbaa !30
  %6 = call noundef ptr @_ZN5Ipopt9GetRawPtrINS_6VectorEEEPT_RKNS_8SmartPtrIS2_EE(ptr noundef nonnull align 8 dereferenceable(8) %5)
  call void @_ZN5Ipopt8SmartPtrIKNS_6VectorEEC2EPS2_(ptr noundef nonnull align 8 dereferenceable(8) %0, ptr noundef %6)
  ret void
}

; Function Attrs: mustprogress uwtable
define linkonce_odr noundef zeroext i1 @_ZN5Ipopt7IsValidINS_6VectorEEEbRKNS_8SmartPtrIT_EE(ptr noundef nonnull align 8 dereferenceable(8) %0) #4 comdat {
  %2 = alloca ptr, align 8
  store ptr %0, ptr %2, align 8, !tbaa !30
  %3 = load ptr, ptr %2, align 8, !tbaa !30
  %4 = call noundef zeroext i1 @_ZN5Ipopt6IsNullINS_6VectorEEEbRKNS_8SmartPtrIT_EE(ptr noundef nonnull align 8 dereferenceable(8) %3)
  %5 = xor i1 %4, true
  ret i1 %5
}

; Function Attrs: mustprogress uwtable
define void @_ZN5Ipopt19StandardScalingBase22apply_vector_scaling_xERKNS_8SmartPtrIKNS_6VectorEEE(ptr dead_on_unwind noalias writable sret(%"class.Ipopt::SmartPtr.1") align 8 %0, ptr noundef nonnull align 8 dereferenceable(72) %1, ptr noundef nonnull align 8 dereferenceable(8) %2) unnamed_addr #4 align 2 personality ptr @__gxx_personality_v0 {
  %4 = alloca ptr, align 8
  %5 = alloca ptr, align 8
  %6 = alloca ptr, align 8
  %7 = alloca %"class.Ipopt::SmartPtr.0", align 8
  %8 = alloca ptr, align 8
  %9 = alloca i32, align 4
  store ptr %0, ptr %4, align 8
  store ptr %1, ptr %5, align 8, !tbaa !64
  store ptr %2, ptr %6, align 8, !tbaa !22
  %10 = load ptr, ptr %5, align 8
  %11 = getelementptr inbounds nuw %"class.Ipopt::StandardScalingBase", ptr %10, i32 0, i32 2
  %12 = call noundef zeroext i1 @_ZN5Ipopt7IsValidINS_6VectorEEEbRKNS_8SmartPtrIT_EE(ptr noundef nonnull align 8 dereferenceable(8) %11)
  br i1 %12, label %13, label %23

13:                                               ; preds = %3
  call void @llvm.lifetime.start.p0(i64 8, ptr %7) #3
  %14 = load ptr, ptr %6, align 8, !tbaa !22
  %15 = load ptr, ptr %10, align 8, !tbaa !8
  %16 = getelementptr inbounds ptr, ptr %15, i64 4
  %17 = load ptr, ptr %16, align 8
  call void %17(ptr dead_on_unwind writable sret(%"class.Ipopt::SmartPtr.0") align 8 %7, ptr noundef nonnull align 8 dereferenceable(72) %10, ptr noundef nonnull align 8 dereferenceable(8) %14)
  invoke void @_ZN5Ipopt8ConstPtrINS_6VectorEEENS_8SmartPtrIKT_EERKNS2_IS3_EE(ptr dead_on_unwind writable sret(%"class.Ipopt::SmartPtr.1") align 8 %0, ptr noundef nonnull align 8 dereferenceable(8) %7)
          to label %18 unwind label %19

18:                                               ; preds = %13
  call void @_ZN5Ipopt8SmartPtrINS_6VectorEED2Ev(ptr noundef nonnull align 8 dereferenceable(8) %7) #3
  call void @llvm.lifetime.end.p0(i64 8, ptr %7) #3
  br label %25

19:                                               ; preds = %13
  %20 = landingpad { ptr, i32 }
          cleanup
  %21 = extractvalue { ptr, i32 } %20, 0
  store ptr %21, ptr %8, align 8
  %22 = extractvalue { ptr, i32 } %20, 1
  store i32 %22, ptr %9, align 4
  call void @_ZN5Ipopt8SmartPtrINS_6VectorEED2Ev(ptr noundef nonnull align 8 dereferenceable(8) %7) #3
  call void @llvm.lifetime.end.p0(i64 8, ptr %7) #3
  br label %26

23:                                               ; preds = %3
  %24 = load ptr, ptr %6, align 8, !tbaa !22
  call void @_ZN5Ipopt8SmartPtrIKNS_6VectorEEC2ERKS3_(ptr noundef nonnull align 8 dereferenceable(8) %0, ptr noundef nonnull align 8 dereferenceable(8) %24)
  br label %25

25:                                               ; preds = %23, %18
  ret void

26:                                               ; preds = %19
  %27 = load ptr, ptr %8, align 8
  %28 = load i32, ptr %9, align 4
  %29 = insertvalue { ptr, i32 } poison, ptr %27, 0
  %30 = insertvalue { ptr, i32 } %29, i32 %28, 1
  resume { ptr, i32 } %30
}